target datalayout = "e-m:e-p270:32:32-p271:32:32-p272:64:64-i64:64-i128:128-f80:128-n8:16:32:64-S128"
target triple = "x86_64-pc-linux-gnu"

%"class.clang::SourceLocation" = type { i32 }
%"class.clang::DeclarationName" = type { i64 }
%"class.clang::ObjCContainerDecl" = type { %"class.clang::NamedDecl", %"class.clang::DeclContext", %"class.clang::SourceRange" }
%"class.clang::NamedDecl" = type { %"class.clang::Decl.base", %"class.clang::DeclarationName" }
%"class.clang::Decl.base" = type <{ ptr, %"class.llvm::PointerIntPair.337", %"class.llvm::PointerUnion", %"class.clang::SourceLocation", i32, i8 }>
%"class.llvm::PointerIntPair.337" = type { %"struct.llvm::detail::PunnedPointer.338" }
%"struct.llvm::detail::PunnedPointer.338" = type { [8 x i8] }
%"class.llvm::PointerUnion" = type { %"class.llvm::pointer_union_detail::PointerUnionMembers" }
%"class.llvm::pointer_union_detail::PointerUnionMembers" = type { %"class.llvm::pointer_union_detail::PointerUnionMembers.339" }
%"class.llvm::pointer_union_detail::PointerUnionMembers.339" = type { %"class.llvm::pointer_union_detail::PointerUnionMembers.340" }
%"class.llvm::pointer_union_detail::PointerUnionMembers.340" = type { %"class.llvm::PointerIntPair.341" }
%"class.llvm::PointerIntPair.341" = type { %"struct.llvm::detail::PunnedPointer.342" }
%"struct.llvm::detail::PunnedPointer.342" = type { [8 x i8] }
%"class.clang::DeclContext" = type { ptr, %union.anon.343, ptr, ptr }
%union.anon.343 = type { %"class.clang::DeclContext::RecordDeclBitfields" }
%"class.clang::DeclContext::RecordDeclBitfields" = type { i64 }
%"class.clang::SourceRange" = type { %"class.clang::SourceLocation", %"class.clang::SourceLocation" }
%"class.clang::ObjCImplDecl" = type { %"class.clang::ObjCContainerDecl", ptr }

; Function Attrs: mustprogress nounwind uwtable
define linkonce_odr hidden noundef ptr @_ZNK5clang15DeclarationName6getPtrEv(ptr noundef nonnull align 8 dereferenceable(8) %0) #0 comdat align 2 {
  %2 = alloca ptr, align 8
  store ptr %0, ptr %2, align 8
  %3 = load ptr, ptr %2, align 8
  %4 = getelementptr inbounds nuw %"class.clang::DeclarationName", ptr %3, i32 0, i32 0
  %5 = load i64, ptr %4, align 8
  %6 = and i64 %5, -8
  %7 = inttoptr i64 %6 to ptr
  ret ptr %7
}

; Function Attrs: mustprogress nounwind uwtable
define linkonce_odr hidden noundef i32 @_ZNK5clang15DeclarationName17getStoredNameKindEv(ptr noundef nonnull align 8 dereferenceable(8) %0) #0 comdat align 2 {
  %2 = alloca ptr, align 8
  store ptr %0, ptr %2, align 8
  %3 = load ptr, ptr %2, align 8
  %4 = getelementptr inbounds nuw %"class.clang::DeclarationName", ptr %3, i32 0, i32 0
  %5 = load i64, ptr %4, align 8
  %6 = and i64 %5, 7
  %7 = trunc i64 %6 to i32
  ret i32 %7
}

; Function Attrs: mustprogress nounwind uwtable
define linkonce_odr hidden noundef ptr @_ZNK5clang15DeclarationName20castAsIdentifierInfoEv(ptr noundef nonnull align 8 dereferenceable(8) %0) #0 comdat align 2 {
  %2 = alloca ptr, align 8
  store ptr %0, ptr %2, align 8
  %3 = load ptr, ptr %2, align 8
  %4 = call noundef ptr @_ZNK5clang15DeclarationName6getPtrEv(ptr noundef nonnull align 8 dereferenceable(8) %3)
  ret ptr %4
}

; Function Attrs: mustprogress nounwind uwtable
define linkonce_odr hidden noundef zeroext i1 @_ZNK5clang15DeclarationName12isIdentifierEv(ptr noundef nonnull align 8 dereferenceable(8) %0) #0 comdat align 2 {
  %2 = alloca ptr, align 8
  store ptr %0, ptr %2, align 8
  %3 = load ptr, ptr %2, align 8
  %4 = call noundef i32 @_ZNK5clang15DeclarationName17getStoredNameKindEv(ptr noundef nonnull align 8 dereferenceable(8) %3)
  %5 = icmp eq i32 %4, 0
  ret i1 %5
}

; Function Attrs: mustprogress nounwind uwtable
define linkonce_odr hidden noundef ptr @_ZNK5clang15DeclarationName19getAsIdentifierInfoEv(ptr noundef nonnull align 8 dereferenceable(8) %0) #0 comdat align 2 {
  %2 = alloca ptr, align 8
  %3 = alloca ptr, align 8
  store ptr %0, ptr %3, align 8
  %4 = load ptr, ptr %3, align 8
  %5 = call noundef zeroext i1 @_ZNK5clang15DeclarationName12isIdentifierEv(ptr noundef nonnull align 8 dereferenceable(8) %4)
  br i1 %5, label %6, label %8

6:                                                ; preds = %1
  %7 = call noundef ptr @_ZNK5clang15DeclarationName20castAsIdentifierInfoEv(ptr noundef nonnull align 8 dereferenceable(8) %4)
  store ptr %7, ptr %2, align 8
  br label %9

8:                                                ; preds = %1
  store ptr null, ptr %2, align 8
  br label %9

9:                                                ; preds = %8, %6
  %10 = load ptr, ptr %2, align 8
  ret ptr %10
}

; Function Attrs: mustprogress nounwind uwtable
define linkonce_odr hidden noundef ptr @_ZNK5clang9NamedDecl13getIdentifierEv(ptr noundef nonnull align 8 dereferenceable(48) %0) #0 comdat align 2 {
  %2 = alloca ptr, align 8
  store ptr %0, ptr %2, align 8
  %3 = load ptr, ptr %2, align 8
  %4 = getelementptr inbounds nuw %"class.clang::NamedDecl", ptr %3, i32 0, i32 1
  %5 = call noundef ptr @_ZNK5clang15DeclarationName19getAsIdentifierInfoEv(ptr noundef nonnull align 8 dereferenceable(8) %4)
  ret ptr %5
}

; Function Attrs: mustprogress nounwind uwtable
define linkonce_odr hidden noundef ptr @_ZNK5clang12ObjCImplDecl17getClassInterfaceEv(ptr noundef nonnull align 8 dereferenceable(96) %0) #0 comdat align 2 {
  %2 = alloca ptr, align 8
  store ptr %0, ptr %2, align 8
  %3 = load ptr, ptr %2, align 8
  %4 = getelementptr inbounds nuw %"class.clang::ObjCImplDecl", ptr %3, i32 0, i32 1
  %5 = load ptr, ptr %4, align 8
  ret ptr %5
}

; Function Attrs: mustprogress nounwind uwtable
define dso_local noundef ptr @_ZNK5clang20ObjCCategoryImplDecl15getCategoryDeclEv(ptr noundef nonnull align 8 dereferenceable(100) %0) #0 align 2 {
  %2 = alloca ptr, align 8
  %3 = alloca ptr, align 8
  %4 = alloca ptr, align 8
  store ptr %0, ptr %3, align 8
  %5 = load ptr, ptr %3, align 8
  %6 = call noundef ptr @_ZNK5clang12ObjCImplDecl17getClassInterfaceEv(ptr noundef nonnull align 8 dereferenceable(96) %5)
  store ptr %6, ptr %4, align 8
  %7 = load ptr, ptr %4, align 8
  %8 = icmp ne ptr %7, null
  br i1 %8, label %9, label %13

9:                                                ; preds = %1
  %10 = load ptr, ptr %4, align 8
  %11 = call noundef ptr @_ZNK5clang9NamedDecl13getIdentifierEv(ptr noundef nonnull align 8 dereferenceable(48) %5)
  %12 = call noundef ptr @_ZNK5clang17ObjCInterfaceDecl23FindCategoryDeclarationEPKNS_14IdentifierInfoE(ptr noundef nonnull align 8 dereferenceable(128) %10, ptr noundef %11)
  store ptr %12, ptr %2, align 8
  br label %14

13:                                               ; preds = %1
  store ptr null, ptr %2, align 8
  br label %14

14:                                               ; preds = %13, %9
  %15 = load ptr, ptr %2, align 8
  ret ptr %15
}