; Function Attrs: mustprogress nounwind uwtable
define dso_local noundef ptr @_ZNK5clang20ObjCCategoryImplDecl15getCategoryDeclEv(ptr nocapture noundef nonnull readonly align 8 dereferenceable(100) %0) local_unnamed_addr #0 align 2 {
  %2 = getelementptr inbounds nuw i8, ptr %0, i64 88
  %3 = load ptr, ptr %2, align 8
  %.not = icmp eq ptr %3, null
  br i1 %.not, label %12, label %4

4:                                                ; preds = %1
  %5 = getelementptr inbounds nuw i8, ptr %0, i64 40
  %6 = load i64, ptr %5, align 8
  %7 = and i64 %6, 7
  %8 = icmp eq i64 %7, 0
  %9 = and i64 %6, -8
  %10 = inttoptr i64 %9 to ptr
  %.0.i.i = select i1 %8, ptr %10, ptr null
  %11 = tail call noundef ptr @_ZNK5clang17ObjCInterfaceDecl23FindCategoryDeclarationEPKNS_14IdentifierInfoE(ptr noundef nonnull align 8 dereferenceable(128) %3, ptr noundef %.0.i.i)
  br label %12

12:                                               ; preds = %1, %4
  %.0 = phi ptr [ %11, %4 ], [ null, %1 ]
  ret ptr %.0
}